target datalayout = "e-m:e-p270:32:32-p271:32:32-p272:64:64-i64:64-i128:128-f80:128-n8:16:32:64-S128"
target triple = "x86_64-pc-linux-gnu"

; Function Attrs: nounwind uwtable
define internal i32 @do_keyop(ptr noundef %0, i32 noundef %1, ptr noundef %2, ptr noundef %3, ptr noundef %4, i64 noundef %5, ptr noundef %6, ptr noundef %7) #0 {
  %9 = alloca ptr, align 8
  %10 = alloca i32, align 4
  %11 = alloca ptr, align 8
  %12 = alloca ptr, align 8
  %13 = alloca ptr, align 8
  %14 = alloca i64, align 8
  %15 = alloca ptr, align 8
  %16 = alloca ptr, align 8
  %17 = alloca i32, align 4
  store ptr %0, ptr %9, align 8, !tbaa !17
  store i32 %1, ptr %10, align 4, !tbaa !4
  store ptr %2, ptr %11, align 8, !tbaa !21
  store ptr %3, ptr %12, align 8, !tbaa !46
  store ptr %4, ptr %13, align 8, !tbaa !21
  store i64 %5, ptr %14, align 8, !tbaa !24
  store ptr %6, ptr %15, align 8, !tbaa !21
  store ptr %7, ptr %16, align 8, !tbaa !46
  call void @llvm.lifetime.start.p0(i64 4, ptr %17) #7
  store i32 0, ptr %17, align 4, !tbaa !4
  %18 = load i32, ptr %10, align 4, !tbaa !4
  switch i32 %18, label %66 [
    i32 64, label %19
    i32 16, label %26
    i32 512, label %33
    i32 1024, label %40
    i32 2048, label %47
    i32 4096, label %52
    i32 8192, label %59
  ]

19:                                               ; preds = %8
  %20 = load ptr, ptr %9, align 8, !tbaa !17
  %21 = load ptr, ptr %11, align 8, !tbaa !21
  %22 = load ptr, ptr %12, align 8, !tbaa !46
  %23 = load ptr, ptr %13, align 8, !tbaa !21
  %24 = load i64, ptr %14, align 8, !tbaa !24
  %25 = call i32 @EVP_PKEY_verify_recover(ptr noundef %20, ptr noundef %21, ptr noundef %22, ptr noundef %23, i64 noundef %24)
  store i32 %25, ptr %17, align 4, !tbaa !4
  br label %66

26:                                               ; preds = %8
  %27 = load ptr, ptr %9, align 8, !tbaa !17
  %28 = load ptr, ptr %11, align 8, !tbaa !21
  %29 = load ptr, ptr %12, align 8, !tbaa !46
  %30 = load ptr, ptr %13, align 8, !tbaa !21
  %31 = load i64, ptr %14, align 8, !tbaa !24
  %32 = call i32 @EVP_PKEY_sign(ptr noundef %27, ptr noundef %28, ptr noundef %29, ptr noundef %30, i64 noundef %31)
  store i32 %32, ptr %17, align 4, !tbaa !4
  br label %66

33:                                               ; preds = %8
  %34 = load ptr, ptr %9, align 8, !tbaa !17
  %35 = load ptr, ptr %11, align 8, !tbaa !21
  %36 = load ptr, ptr %12, align 8, !tbaa !46
  %37 = load ptr, ptr %13, align 8, !tbaa !21
  %38 = load i64, ptr %14, align 8, !tbaa !24
  %39 = call i32 @EVP_PKEY_encrypt(ptr noundef %34, ptr noundef %35, ptr noundef %36, ptr noundef %37, i64 noundef %38)
  store i32 %39, ptr %17, align 4, !tbaa !4
  br label %66

40:                                               ; preds = %8
  %41 = load ptr, ptr %9, align 8, !tbaa !17
  %42 = load ptr, ptr %11, align 8, !tbaa !21
  %43 = load ptr, ptr %12, align 8, !tbaa !46
  %44 = load ptr, ptr %13, align 8, !tbaa !21
  %45 = load i64, ptr %14, align 8, !tbaa !24
  %46 = call i32 @EVP_PKEY_decrypt(ptr noundef %41, ptr noundef %42, ptr noundef %43, ptr noundef %44, i64 noundef %45)
  store i32 %46, ptr %17, align 4, !tbaa !4
  br label %66

47:                                               ; preds = %8
  %48 = load ptr, ptr %9, align 8, !tbaa !17
  %49 = load ptr, ptr %11, align 8, !tbaa !21
  %50 = load ptr, ptr %12, align 8, !tbaa !46
  %51 = call i32 @EVP_PKEY_derive(ptr noundef %48, ptr noundef %49, ptr noundef %50)
  store i32 %51, ptr %17, align 4, !tbaa !4
  br label %66

52:                                               ; preds = %8
  %53 = load ptr, ptr %9, align 8, !tbaa !17
  %54 = load ptr, ptr %11, align 8, !tbaa !21
  %55 = load ptr, ptr %12, align 8, !tbaa !46
  %56 = load ptr, ptr %15, align 8, !tbaa !21
  %57 = load ptr, ptr %16, align 8, !tbaa !46
  %58 = call i32 @EVP_PKEY_encapsulate(ptr noundef %53, ptr noundef %54, ptr noundef %55, ptr noundef %56, ptr noundef %57)
  store i32 %58, ptr %17, align 4, !tbaa !4
  br label %66

59:                                               ; preds = %8
  %60 = load ptr, ptr %9, align 8, !tbaa !17
  %61 = load ptr, ptr %15, align 8, !tbaa !21
  %62 = load ptr, ptr %16, align 8, !tbaa !46
  %63 = load ptr, ptr %13, align 8, !tbaa !21
  %64 = load i64, ptr %14, align 8, !tbaa !24
  %65 = call i32 @EVP_PKEY_decapsulate(ptr noundef %60, ptr noundef %61, ptr noundef %62, ptr noundef %63, i64 noundef %64)
  store i32 %65, ptr %17, align 4, !tbaa !4
  br label %66

66:                                               ; preds = %8, %59, %52, %47, %40, %33, %26, %19
  %67 = load i32, ptr %17, align 4, !tbaa !4
  call void @llvm.lifetime.end.p0(i64 4, ptr %17) #7
  ret i32 %67
}