; Function Attrs: nounwind uwtable
define internal fastcc i32 @do_keyop(ptr noundef nonnull %0, i32 noundef range(i32 16, 8193) %1, ptr noundef %2, ptr noundef nonnull %3, ptr noundef %4, i64 noundef range(i64 0, 2147483648) %5, ptr noundef %6, ptr noundef nonnull %7) unnamed_addr #0 {
  switch i32 %1, label %23 [
    i32 64, label %9
    i32 16, label %11
    i32 512, label %13
    i32 1024, label %15
    i32 2048, label %17
    i32 4096, label %19
    i32 8192, label %21
  ]

9:                                                ; preds = %8
  %10 = tail call i32 @EVP_PKEY_verify_recover(ptr noundef nonnull %0, ptr noundef %2, ptr noundef nonnull %3, ptr noundef %4, i64 noundef %5) #7
  br label %23

11:                                               ; preds = %8
  %12 = tail call i32 @EVP_PKEY_sign(ptr noundef nonnull %0, ptr noundef %2, ptr noundef nonnull %3, ptr noundef %4, i64 noundef %5) #7
  br label %23

13:                                               ; preds = %8
  %14 = tail call i32 @EVP_PKEY_encrypt(ptr noundef nonnull %0, ptr noundef %2, ptr noundef nonnull %3, ptr noundef %4, i64 noundef %5) #7
  br label %23

15:                                               ; preds = %8
  %16 = tail call i32 @EVP_PKEY_decrypt(ptr noundef nonnull %0, ptr noundef %2, ptr noundef nonnull %3, ptr noundef %4, i64 noundef %5) #7
  br label %23

17:                                               ; preds = %8
  %18 = tail call i32 @EVP_PKEY_derive(ptr noundef nonnull %0, ptr noundef %2, ptr noundef nonnull %3) #7
  br label %23

19:                                               ; preds = %8
  %20 = tail call i32 @EVP_PKEY_encapsulate(ptr noundef nonnull %0, ptr noundef %2, ptr noundef nonnull %3, ptr noundef %6, ptr noundef nonnull %7) #7
  br label %23

21:                                               ; preds = %8
  %22 = tail call i32 @EVP_PKEY_decapsulate(ptr noundef nonnull %0, ptr noundef %6, ptr noundef nonnull %7, ptr noundef %4, i64 noundef %5) #7
  br label %23

23:                                               ; preds = %21, %19, %17, %15, %13, %11, %9, %8
  %.0 = phi i32 [ 0, %8 ], [ %22, %21 ], [ %20, %19 ], [ %18, %17 ], [ %16, %15 ], [ %14, %13 ], [ %12, %11 ], [ %10, %9 ]
  ret i32 %.0
}